target datalayout = "e-m:e-p270:32:32-p271:32:32-p272:64:64-i64:64-i128:128-f80:128-n8:16:32:64-S128"
target triple = "x86_64-pc-linux-gnu"

%struct.preference = type { ptr, ptr, ptr, i32, i32, i32, %union.anon, %union.anon.0, %union.anon.1, %union.anon.2, %struct.pref_custom_cbs, ptr, ptr }
%union.anon = type { ptr }
%union.anon.0 = type { ptr }
%union.anon.1 = type { ptr }
%union.anon.2 = type { %struct.anon }
%struct.anon = type { ptr, i8 }
%struct.pref_custom_cbs = type { ptr, ptr, ptr, ptr, ptr, ptr, ptr }

; Function Attrs: null_pointer_is_valid sspstrong uwtable
define void @prefs_register_custom_preference_TCP_Analysis(ptr noundef %0, ptr noundef %1, ptr noundef %2, ptr noundef %3, ptr noundef %4, ptr noundef %5, i1 noundef zeroext %6) #1 {
  %8 = alloca ptr, align 8
  %9 = alloca ptr, align 8
  %10 = alloca ptr, align 8
  %11 = alloca ptr, align 8
  %12 = alloca ptr, align 8
  %13 = alloca ptr, align 8
  %14 = alloca i8, align 1
  %15 = alloca ptr, align 8
  store ptr %0, ptr %8, align 8
  store ptr %1, ptr %9, align 8
  store ptr %2, ptr %10, align 8
  store ptr %3, ptr %11, align 8
  store ptr %4, ptr %12, align 8
  store ptr %5, ptr %13, align 8
  %16 = zext i1 %6 to i8
  store i8 %16, ptr %14, align 1
  call void @llvm.lifetime.start.p0(i64 8, ptr %15) #17
  %17 = load ptr, ptr %8, align 8
  %18 = load ptr, ptr %9, align 8
  %19 = load ptr, ptr %10, align 8
  %20 = load ptr, ptr %11, align 8
  %21 = call ptr @register_preference(ptr noundef %17, ptr noundef %18, ptr noundef %19, ptr noundef %20, i32 noundef 65536)
  store ptr %21, ptr %15, align 8
  %22 = load ptr, ptr %12, align 8
  %23 = load ptr, ptr %15, align 8
  %24 = getelementptr inbounds nuw %struct.preference, ptr %23, i32 0, i32 6
  store ptr %22, ptr %24, align 8
  %25 = load ptr, ptr %12, align 8
  %26 = load i32, ptr %25, align 4
  %27 = load ptr, ptr %15, align 8
  %28 = getelementptr inbounds nuw %struct.preference, ptr %27, i32 0, i32 8
  store i32 %26, ptr %28, align 8
  %29 = load ptr, ptr %15, align 8
  %30 = getelementptr inbounds nuw %struct.preference, ptr %29, i32 0, i32 7
  store ptr null, ptr %30, align 8
  %31 = load ptr, ptr %13, align 8
  %32 = load ptr, ptr %15, align 8
  %33 = getelementptr inbounds nuw %struct.preference, ptr %32, i32 0, i32 9
  %34 = getelementptr inbounds nuw %struct.anon, ptr %33, i32 0, i32 0
  store ptr %31, ptr %34, align 8
  %35 = load i8, ptr %14, align 1, !range !6, !noundef !7
  %36 = trunc i8 %35 to i1
  %37 = load ptr, ptr %15, align 8
  %38 = getelementptr inbounds nuw %struct.preference, ptr %37, i32 0, i32 9
  %39 = getelementptr inbounds nuw %struct.anon, ptr %38, i32 0, i32 1
  %40 = zext i1 %36 to i8
  store i8 %40, ptr %39, align 8
  call void @llvm.lifetime.end.p0(i64 8, ptr %15) #17
  ret void
}