; Function Attrs: null_pointer_is_valid sspstrong uwtable
define void @prefs_register_custom_preference_TCP_Analysis(ptr noundef captures(address_is_null) %0, ptr noundef %1, ptr noundef %2, ptr noundef %3, ptr noundef %4, ptr noundef %5, i1 noundef zeroext %6) local_unnamed_addr #1 {
  %8 = zext i1 %6 to i8
  %9 = tail call fastcc ptr @register_preference(ptr noundef %0, ptr noundef %1, ptr noundef %2, ptr noundef %3, i32 noundef 65536)
  %10 = getelementptr inbounds nuw i8, ptr %9, i64 40
  store ptr %4, ptr %10, align 8
  %11 = load i32, ptr %4, align 4
  %12 = getelementptr inbounds nuw i8, ptr %9, i64 56
  store i32 %11, ptr %12, align 8
  %13 = getelementptr inbounds nuw i8, ptr %9, i64 48
  store ptr null, ptr %13, align 8
  %14 = getelementptr inbounds nuw i8, ptr %9, i64 64
  store ptr %5, ptr %14, align 8
  %15 = getelementptr inbounds nuw i8, ptr %9, i64 72
  store i8 %8, ptr %15, align 8
  ret void
}